target datalayout = "e-m:e-p270:32:32-p271:32:32-p272:64:64-i64:64-i128:128-f80:128-n8:16:32:64-S128"
target triple = "x86_64-pc-linux-gnu"

%struct.PlanState = type { i32, ptr, ptr, ptr, ptr, ptr, ptr, ptr, ptr, ptr, ptr, ptr, ptr, ptr, ptr, ptr, ptr, ptr, i8, ptr, ptr, ptr, ptr, ptr, i8, i8, i8, i8, i8, i8, i8, i8 }
%struct.HashJoinTableData = type { i32, i32, i32, i32, i32, %union.anon, i8, ptr, i32, i32, ptr, i32, i32, i32, i32, i8, double, double, double, ptr, ptr, i64, i64, i64, i64, i64, ptr, ptr, ptr, ptr, ptr, ptr, ptr, ptr, i64 }
%union.anon = type { ptr }
%struct.ExprContext = type { i32, ptr, ptr, ptr, ptr, ptr, ptr, ptr, ptr, ptr, i64, i8, i64, i8, ptr, ptr, ptr, ptr }
%struct.HashSkewBucket = type { i32, ptr }
%struct.MinimalTupleData = type { i32, [6 x i8], i16, i16, i8, [0 x i8] }
%struct.HashJoinTupleData = type { %union.anon.0, i32 }
%union.anon.0 = type { ptr }
%struct.HashJoinState = type { %struct.JoinState, ptr, ptr, ptr, i32, i32, i32, ptr, ptr, ptr, ptr, ptr, ptr, i32, i8, i8 }
%struct.JoinState = type { %struct.PlanState, i32, i8, ptr }

@InterruptPending = external global i32, align 4

; Function Attrs: inlinehint nounwind uwtable
define internal zeroext i1 @HeapTupleHeaderHasMatch(ptr noundef %0) #3 {
  %2 = alloca ptr, align 8
  store ptr %0, ptr %2, align 8
  %3 = load ptr, ptr %2, align 8
  %4 = getelementptr inbounds nuw %struct.MinimalTupleData, ptr %3, i32 0, i32 2
  %5 = load i16, ptr %4, align 2
  %6 = zext i16 %5 to i32
  %7 = and i32 %6, 32768
  %8 = icmp ne i32 %7, 0
  ret i1 %8
}

; Function Attrs: nounwind uwtable
define dso_local zeroext i1 @ExecScanHashTableForUnmatched(ptr noundef %0, ptr noundef %1) #0 {
  %3 = alloca i1, align 1
  %4 = alloca ptr, align 8
  %5 = alloca ptr, align 8
  %6 = alloca ptr, align 8
  %7 = alloca ptr, align 8
  %8 = alloca i32, align 4
  %9 = alloca ptr, align 8
  %10 = alloca i32, align 4
  store ptr %0, ptr %4, align 8
  store ptr %1, ptr %5, align 8
  call void @llvm.lifetime.start.p0(i64 8, ptr %6) #9
  %11 = load ptr, ptr %4, align 8
  %12 = getelementptr inbounds nuw %struct.HashJoinState, ptr %11, i32 0, i32 3
  %13 = load ptr, ptr %12, align 8
  store ptr %13, ptr %6, align 8
  call void @llvm.lifetime.start.p0(i64 8, ptr %7) #9
  %14 = load ptr, ptr %4, align 8
  %15 = getelementptr inbounds nuw %struct.HashJoinState, ptr %14, i32 0, i32 7
  %16 = load ptr, ptr %15, align 8
  store ptr %16, ptr %7, align 8
  br label %17

17:                                               ; preds = %119, %2
  %18 = load ptr, ptr %7, align 8
  %19 = icmp ne ptr %18, null
  br i1 %19, label %20, label %24

20:                                               ; preds = %17
  %21 = load ptr, ptr %7, align 8
  %22 = getelementptr inbounds nuw %struct.HashJoinTupleData, ptr %21, i32 0, i32 0
  %23 = load ptr, ptr %22, align 8
  store ptr %23, ptr %7, align 8
  br label %80

24:                                               ; preds = %17
  %25 = load ptr, ptr %4, align 8
  %26 = getelementptr inbounds nuw %struct.HashJoinState, ptr %25, i32 0, i32 5
  %27 = load i32, ptr %26, align 4
  %28 = load ptr, ptr %6, align 8
  %29 = getelementptr inbounds nuw %struct.HashJoinTableData, ptr %28, i32 0, i32 0
  %30 = load i32, ptr %29, align 8
  %31 = icmp slt i32 %27, %30
  br i1 %31, label %32, label %46

32:                                               ; preds = %24
  %33 = load ptr, ptr %6, align 8
  %34 = getelementptr inbounds nuw %struct.HashJoinTableData, ptr %33, i32 0, i32 5
  %35 = load ptr, ptr %34, align 8
  %36 = load ptr, ptr %4, align 8
  %37 = getelementptr inbounds nuw %struct.HashJoinState, ptr %36, i32 0, i32 5
  %38 = load i32, ptr %37, align 4
  %39 = sext i32 %38 to i64
  %40 = getelementptr inbounds ptr, ptr %35, i64 %39
  %41 = load ptr, ptr %40, align 8
  store ptr %41, ptr %7, align 8
  %42 = load ptr, ptr %4, align 8
  %43 = getelementptr inbounds nuw %struct.HashJoinState, ptr %42, i32 0, i32 5
  %44 = load i32, ptr %43, align 4
  %45 = add i32 %44, 1
  store i32 %45, ptr %43, align 4
  br label %79

46:                                               ; preds = %24
  %47 = load ptr, ptr %4, align 8
  %48 = getelementptr inbounds nuw %struct.HashJoinState, ptr %47, i32 0, i32 6
  %49 = load i32, ptr %48, align 8
  %50 = load ptr, ptr %6, align 8
  %51 = getelementptr inbounds nuw %struct.HashJoinTableData, ptr %50, i32 0, i32 9
  %52 = load i32, ptr %51, align 4
  %53 = icmp slt i32 %49, %52
  br i1 %53, label %54, label %77

54:                                               ; preds = %46
  call void @llvm.lifetime.start.p0(i64 4, ptr %8) #9
  %55 = load ptr, ptr %6, align 8
  %56 = getelementptr inbounds nuw %struct.HashJoinTableData, ptr %55, i32 0, i32 10
  %57 = load ptr, ptr %56, align 8
  %58 = load ptr, ptr %4, align 8
  %59 = getelementptr inbounds nuw %struct.HashJoinState, ptr %58, i32 0, i32 6
  %60 = load i32, ptr %59, align 8
  %61 = sext i32 %60 to i64
  %62 = getelementptr inbounds i32, ptr %57, i64 %61
  %63 = load i32, ptr %62, align 4
  store i32 %63, ptr %8, align 4
  %64 = load ptr, ptr %6, align 8
  %65 = getelementptr inbounds nuw %struct.HashJoinTableData, ptr %64, i32 0, i32 7
  %66 = load ptr, ptr %65, align 8
  %67 = load i32, ptr %8, align 4
  %68 = sext i32 %67 to i64
  %69 = getelementptr inbounds ptr, ptr %66, i64 %68
  %70 = load ptr, ptr %69, align 8
  %71 = getelementptr inbounds nuw %struct.HashSkewBucket, ptr %70, i32 0, i32 1
  %72 = load ptr, ptr %71, align 8
  store ptr %72, ptr %7, align 8
  %73 = load ptr, ptr %4, align 8
  %74 = getelementptr inbounds nuw %struct.HashJoinState, ptr %73, i32 0, i32 6
  %75 = load i32, ptr %74, align 8
  %76 = add i32 %75, 1
  store i32 %76, ptr %74, align 8
  call void @llvm.lifetime.end.p0(i64 4, ptr %8) #9
  br label %78

77:                                               ; preds = %46
  br label %120

78:                                               ; preds = %54
  br label %79

79:                                               ; preds = %78, %32
  br label %80

80:                                               ; preds = %79, %20
  br label %81

81:                                               ; preds = %104, %80
  %82 = load ptr, ptr %7, align 8
  %83 = icmp ne ptr %82, null
  br i1 %83, label %84, label %108

84:                                               ; preds = %81
  %85 = load ptr, ptr %7, align 8
  %86 = getelementptr inbounds nuw i8, ptr %85, i64 16
  %87 = call zeroext i1 @HeapTupleHeaderHasMatch(ptr noundef %86)
  br i1 %87, label %104, label %88

88:                                               ; preds = %84
  call void @llvm.lifetime.start.p0(i64 8, ptr %9) #9
  %89 = load ptr, ptr %7, align 8
  %90 = getelementptr inbounds nuw i8, ptr %89, i64 16
  %91 = load ptr, ptr %4, align 8
  %92 = getelementptr inbounds nuw %struct.HashJoinState, ptr %91, i32 0, i32 9
  %93 = load ptr, ptr %92, align 8
  %94 = call ptr @ExecStoreMinimalTuple(ptr noundef %90, ptr noundef %93, i1 noundef zeroext false)
  store ptr %94, ptr %9, align 8
  %95 = load ptr, ptr %9, align 8
  %96 = load ptr, ptr %5, align 8
  %97 = getelementptr inbounds nuw %struct.ExprContext, ptr %96, i32 0, i32 2
  store ptr %95, ptr %97, align 8
  %98 = load ptr, ptr %5, align 8
  %99 = getelementptr inbounds nuw %struct.ExprContext, ptr %98, i32 0, i32 5
  %100 = load ptr, ptr %99, align 8
  call void @MemoryContextReset(ptr noundef %100)
  %101 = load ptr, ptr %7, align 8
  %102 = load ptr, ptr %4, align 8
  %103 = getelementptr inbounds nuw %struct.HashJoinState, ptr %102, i32 0, i32 7
  store ptr %101, ptr %103, align 8
  store i1 true, ptr %3, align 1
  store i32 1, ptr %10, align 4
  call void @llvm.lifetime.end.p0(i64 8, ptr %9) #9
  br label %121

104:                                              ; preds = %84
  %105 = load ptr, ptr %7, align 8
  %106 = getelementptr inbounds nuw %struct.HashJoinTupleData, ptr %105, i32 0, i32 0
  %107 = load ptr, ptr %106, align 8
  store ptr %107, ptr %7, align 8
  br label %81, !llvm.loop !20

108:                                              ; preds = %81
  br label %109

109:                                              ; preds = %108
  %110 = load volatile i32, ptr @InterruptPending, align 4
  %111 = icmp ne i32 %110, 0
  %112 = zext i1 %111 to i32
  %113 = sext i32 %112 to i64
  %114 = call i64 @llvm.expect.i64(i64 %113, i64 0)
  %115 = icmp ne i64 %114, 0
  br i1 %115, label %116, label %117

116:                                              ; preds = %109
  call void @ProcessInterrupts()
  br label %117

117:                                              ; preds = %116, %109
  br label %118

118:                                              ; preds = %117
  br label %119

119:                                              ; preds = %118
  br label %17

120:                                              ; preds = %77
  store i1 false, ptr %3, align 1
  store i32 1, ptr %10, align 4
  br label %121

121:                                              ; preds = %120, %88
  call void @llvm.lifetime.end.p0(i64 8, ptr %7) #9
  call void @llvm.lifetime.end.p0(i64 8, ptr %6) #9
  %122 = load i1, ptr %3, align 1
  ret i1 %122
}