; Function Attrs: nounwind uwtable
define dso_local noundef zeroext i1 @ExecScanHashTableForUnmatched(ptr noundef captures(none) %0, ptr noundef captures(none) %1) local_unnamed_addr #0 {
  %3 = getelementptr inbounds nuw i8, ptr %0, i64 232
  %4 = load ptr, ptr %3, align 8
  %5 = getelementptr inbounds nuw i8, ptr %0, i64 256
  %6 = load ptr, ptr %5, align 8
  %7 = getelementptr inbounds nuw i8, ptr %0, i64 244
  %8 = getelementptr inbounds nuw i8, ptr %0, i64 248
  %9 = getelementptr inbounds nuw i8, ptr %4, i64 52
  %10 = getelementptr inbounds nuw i8, ptr %4, i64 56
  %11 = getelementptr inbounds nuw i8, ptr %4, i64 40
  %12 = getelementptr inbounds nuw i8, ptr %4, i64 24
  br label %13

13:                                               ; preds = %.backedge, %2
  %.026 = phi ptr [ %6, %2 ], [ null, %.backedge ]
  %.not = icmp eq ptr %.026, null
  br i1 %.not, label %16, label %14

14:                                               ; preds = %13
  %15 = load ptr, ptr %.026, align 8
  br label %42

16:                                               ; preds = %13
  %17 = load i32, ptr %7, align 4
  %18 = load i32, ptr %4, align 8
  %19 = icmp slt i32 %17, %18
  br i1 %19, label %20, label %26

20:                                               ; preds = %16
  %21 = load ptr, ptr %12, align 8
  %22 = sext i32 %17 to i64
  %23 = getelementptr inbounds ptr, ptr %21, i64 %22
  %24 = load ptr, ptr %23, align 8
  %25 = add nsw i32 %17, 1
  store i32 %25, ptr %7, align 4
  br label %42

26:                                               ; preds = %16
  %27 = load i32, ptr %8, align 8
  %28 = load i32, ptr %9, align 4
  %29 = icmp slt i32 %27, %28
  br i1 %29, label %30, label %.loopexit

30:                                               ; preds = %26
  %31 = load ptr, ptr %10, align 8
  %32 = sext i32 %27 to i64
  %33 = getelementptr inbounds i32, ptr %31, i64 %32
  %34 = load i32, ptr %33, align 4
  %35 = load ptr, ptr %11, align 8
  %36 = sext i32 %34 to i64
  %37 = getelementptr inbounds ptr, ptr %35, i64 %36
  %38 = load ptr, ptr %37, align 8
  %39 = getelementptr inbounds nuw i8, ptr %38, i64 8
  %40 = load ptr, ptr %39, align 8
  %41 = add nsw i32 %27, 1
  store i32 %41, ptr %8, align 8
  br label %42

42:                                               ; preds = %20, %30, %14
  %.1 = phi ptr [ %15, %14 ], [ %24, %20 ], [ %40, %30 ]
  %.not2932 = icmp eq ptr %.1, null
  br i1 %.not2932, label %._crit_edge, label %.lr.ph

.lr.ph:                                           ; preds = %42, %53
  %.233 = phi ptr [ %54, %53 ], [ %.1, %42 ]
  %43 = getelementptr i8, ptr %.233, i64 26
  %.val = load i16, ptr %43, align 2
  %44 = icmp slt i16 %.val, 0
  br i1 %44, label %53, label %45

45:                                               ; preds = %.lr.ph
  %46 = getelementptr inbounds nuw i8, ptr %.233, i64 16
  %47 = getelementptr inbounds nuw i8, ptr %0, i64 272
  %48 = load ptr, ptr %47, align 8
  %49 = tail call ptr @ExecStoreMinimalTuple(ptr noundef nonnull %46, ptr noundef %48, i1 noundef zeroext false) #16
  %50 = getelementptr inbounds nuw i8, ptr %1, i64 16
  store ptr %49, ptr %50, align 8
  %51 = getelementptr inbounds nuw i8, ptr %1, i64 40
  %52 = load ptr, ptr %51, align 8
  tail call void @MemoryContextReset(ptr noundef %52) #16
  store ptr %.233, ptr %5, align 8
  br label %.loopexit

53:                                               ; preds = %.lr.ph
  %54 = load ptr, ptr %.233, align 8
  %.not29 = icmp eq ptr %54, null
  br i1 %.not29, label %._crit_edge, label %.lr.ph, !llvm.loop !28

._crit_edge:                                      ; preds = %53, %42
  %55 = load volatile i32, ptr @InterruptPending, align 4
  %.not30 = icmp eq i32 %55, 0
  br i1 %.not30, label %.backedge, label %56, !prof !10

56:                                               ; preds = %._crit_edge
  tail call void @ProcessInterrupts() #16
  br label %.backedge

.backedge:                                        ; preds = %56, %._crit_edge
  br label %13

.loopexit:                                        ; preds = %26, %45
  %.0 = phi i1 [ true, %45 ], [ false, %26 ]
  ret i1 %.0
}